; Function Attrs: null_pointer_is_valid sspstrong uwtable
define internal void @protobuf_udp_message_types_udp_port_range_tostr_cb(ptr noundef readonly captures(none) %0, ptr noundef writeonly captures(none) initializes((0, 8)) %1, ptr noundef writeonly captures(none) initializes((0, 4)) %2, ptr readnone captures(none) %3, ptr readnone captures(none) %4) #0 {
  %6 = load ptr, ptr %0, align 8
  %.not = icmp eq ptr %6, null
  br i1 %.not, label %11, label %7

7:                                                ; preds = %5
  %8 = tail call ptr @range_convert_range(ptr noundef null, ptr noundef nonnull %6)
  store ptr %8, ptr %1, align 8
  %9 = tail call i64 @strlen(ptr noundef %8) #15
  %10 = trunc i64 %9 to i32
  br label %13

11:                                               ; preds = %5
  %12 = tail call noalias ptr @g_strdup(ptr noundef nonnull @.str.166)
  store ptr %12, ptr %1, align 8
  br label %13

13:                                               ; preds = %11, %7
  %storemerge = phi i32 [ 0, %11 ], [ %10, %7 ]
  store i32 %storemerge, ptr %2, align 4
  ret void
}